; Function Attrs: mustprogress uwtable
define dso_local void @_ZN5vcpkg19ExtendedBuildResultC2ENS_11BuildResultENS_4PathEOSt6vectorINSt7__cxx1112basic_stringIcSt11char_traitsIcESaIcEEESaIS9_EE(ptr noundef nonnull align 8 dereferenceable(104) %0, i32 noundef %1, ptr noundef nonnull %2, ptr noundef nonnull align 8 dereferenceable(24) %3) unnamed_addr #2 align 2 personality ptr @__gxx_personality_v0 {
  store i32 %1, ptr %0, align 8
  %5 = getelementptr inbounds i8, ptr %0, i64 8
  %6 = getelementptr inbounds i8, ptr %0, i64 40
  tail call void @llvm.memset.p0.i64(ptr noundef nonnull align 8 dereferenceable(32) %5, i8 0, i64 32, i1 false)
  store i8 1, ptr %6, align 8
  %7 = getelementptr inbounds i8, ptr %0, i64 48
  invoke void @_ZNSt7__cxx1112basic_stringIcSt11char_traitsIcESaIcEEC1ERKS4_(ptr noundef nonnull align 8 dereferenceable(32) %7, ptr noundef nonnull align 8 dereferenceable(32) %2)
          to label %_ZN5vcpkg8OptionalINS_4PathEEC2IRS1_TnNSt9enable_ifIXaantsr3stdE9is_same_vINSt5decayIT_E4typeES2_Esr3stdE18is_constructible_vINS_7details15OptionalStorageIS1_Lb1EEES7_EEiE4typeELi0EEEOS7_.exit unwind label %10

_ZN5vcpkg8OptionalINS_4PathEEC2IRS1_TnNSt9enable_ifIXaantsr3stdE9is_same_vINSt5decayIT_E4typeES2_Esr3stdE18is_constructible_vINS_7details15OptionalStorageIS1_Lb1EEES7_EEiE4typeELi0EEEOS7_.exit: ; preds = %4
  %8 = getelementptr inbounds i8, ptr %0, i64 80
  invoke void @_ZNSt6vectorINSt7__cxx1112basic_stringIcSt11char_traitsIcESaIcEEESaIS5_EEC2ERKS7_(ptr noundef nonnull align 8 dereferenceable(24) %8, ptr noundef nonnull align 8 dereferenceable(24) %3)
          to label %9 unwind label %12

9:                                                ; preds = %_ZN5vcpkg8OptionalINS_4PathEEC2IRS1_TnNSt9enable_ifIXaantsr3stdE9is_same_vINSt5decayIT_E4typeES2_Esr3stdE18is_constructible_vINS_7details15OptionalStorageIS1_Lb1EEES7_EEiE4typeELi0EEEOS7_.exit
  ret void

10:                                               ; preds = %4
  %11 = landingpad { ptr, i32 }
          cleanup
  br label %_ZN5vcpkg8OptionalINS_4PathEED2Ev.exit

12:                                               ; preds = %_ZN5vcpkg8OptionalINS_4PathEEC2IRS1_TnNSt9enable_ifIXaantsr3stdE9is_same_vINSt5decayIT_E4typeES2_Esr3stdE18is_constructible_vINS_7details15OptionalStorageIS1_Lb1EEES7_EEiE4typeELi0EEEOS7_.exit
  %13 = landingpad { ptr, i32 }
          cleanup
  %14 = load i8, ptr %6, align 8
  %15 = and i8 %14, 1
  %.not.i.i = icmp eq i8 %15, 0
  br i1 %.not.i.i, label %_ZN5vcpkg8OptionalINS_4PathEED2Ev.exit, label %16

16:                                               ; preds = %12
  tail call void @_ZNSt7__cxx1112basic_stringIcSt11char_traitsIcESaIcEED1Ev(ptr noundef nonnull align 8 dereferenceable(32) %7) #25
  br label %_ZN5vcpkg8OptionalINS_4PathEED2Ev.exit

_ZN5vcpkg8OptionalINS_4PathEED2Ev.exit:           ; preds = %16, %12, %10
  %.pn = phi { ptr, i32 } [ %11, %10 ], [ %13, %12 ], [ %13, %16 ]
  %17 = getelementptr inbounds i8, ptr %0, i64 32
  tail call void @_ZNSt10unique_ptrIN5vcpkg17BinaryControlFileESt14default_deleteIS1_EED2Ev(ptr noundef nonnull align 8 dereferenceable(8) %17) #25
  tail call void @_ZNSt6vectorIN5vcpkg11FeatureSpecESaIS1_EED2Ev(ptr noundef nonnull align 8 dereferenceable(24) %5) #25
  resume { ptr, i32 } %.pn
}